target datalayout = "e-m:e-p270:32:32-p271:32:32-p272:64:64-i64:64-i128:128-f80:128-n8:16:32:64-S128"
target triple = "x86_64-pc-linux-gnu"

%struct.mbedtls_ssl_config = type { i32, i32, i8, i8, i8, i8, i8, i8, i8, i8, i8, i8, i16, i8, i8, i8, ptr, i32, ptr, ptr, ptr, ptr, ptr, ptr, ptr, ptr, ptr, ptr, ptr, ptr, ptr, ptr, ptr, ptr, ptr, ptr, ptr, i64, ptr, ptr, ptr, ptr, ptr, ptr, ptr, ptr, %struct.mbedtls_mpi, %struct.mbedtls_mpi, ptr, i64, ptr, i64, ptr, i32, i32, i32, i32, [8 x i8], i32, i32, %union.mbedtls_ssl_user_data_t, ptr, ptr }
%struct.mbedtls_mpi = type { ptr, i16, i16 }
%union.mbedtls_ssl_user_data_t = type { i64 }
%struct.mbedtls_ssl_context = type { ptr, i32, i32, i32, i32, i32, ptr, ptr, ptr, ptr, ptr, ptr, ptr, ptr, ptr, ptr, ptr, ptr, ptr, ptr, ptr, ptr, ptr, ptr, ptr, ptr, ptr, ptr, ptr, ptr, ptr, ptr, ptr, i32, i64, i64, i16, i64, i64, i64, i64, i32, i32, i8, i8, i32, i8, ptr, ptr, ptr, ptr, ptr, ptr, ptr, i32, i64, i64, [8 x i8], i16, ptr, ptr, ptr, i64, i32, i64, [12 x i8], [12 x i8], [32 x i8], i8, i8, ptr, ptr, %union.mbedtls_ssl_user_data_t }
%struct.mbedtls_ssl_ciphersuite_t = type { i32, ptr, i8, i8, i8, i8, i16, i16 }

; Function Attrs: nounwind uwtable
define hidden i32 @mbedtls_ssl_conf_has_static_psk(ptr noundef %0) #0 {
  %2 = alloca i32, align 4
  %3 = alloca ptr, align 8
  store ptr %0, ptr %3, align 8, !tbaa !3
  %4 = load ptr, ptr %3, align 8, !tbaa !3
  %5 = getelementptr inbounds nuw %struct.mbedtls_ssl_config, ptr %4, i32 0, i32 50
  %6 = load ptr, ptr %5, align 8, !tbaa !205
  %7 = icmp eq ptr %6, null
  br i1 %7, label %13, label %8

8:                                                ; preds = %1
  %9 = load ptr, ptr %3, align 8, !tbaa !3
  %10 = getelementptr inbounds nuw %struct.mbedtls_ssl_config, ptr %9, i32 0, i32 51
  %11 = load i64, ptr %10, align 8, !tbaa !206
  %12 = icmp eq i64 %11, 0
  br i1 %12, label %13, label %14

13:                                               ; preds = %8, %1
  store i32 0, ptr %2, align 4
  br label %26

14:                                               ; preds = %8
  %15 = load ptr, ptr %3, align 8, !tbaa !3
  %16 = getelementptr inbounds nuw %struct.mbedtls_ssl_config, ptr %15, i32 0, i32 48
  %17 = load ptr, ptr %16, align 8, !tbaa !207
  %18 = icmp ne ptr %17, null
  br i1 %18, label %19, label %25

19:                                               ; preds = %14
  %20 = load ptr, ptr %3, align 8, !tbaa !3
  %21 = getelementptr inbounds nuw %struct.mbedtls_ssl_config, ptr %20, i32 0, i32 49
  %22 = load i64, ptr %21, align 8, !tbaa !208
  %23 = icmp ne i64 %22, 0
  br i1 %23, label %24, label %25

24:                                               ; preds = %19
  store i32 1, ptr %2, align 4
  br label %26

25:                                               ; preds = %19, %14
  store i32 0, ptr %2, align 4
  br label %26

26:                                               ; preds = %25, %24, %13
  %27 = load i32, ptr %2, align 4
  ret i32 %27
}

; Function Attrs: nounwind uwtable
define hidden i32 @mbedtls_ssl_validate_ciphersuite(ptr noundef %0, ptr noundef %1, i32 noundef %2, i32 noundef %3) #0 {
  %5 = alloca i32, align 4
  %6 = alloca ptr, align 8
  %7 = alloca ptr, align 8
  %8 = alloca i32, align 4
  %9 = alloca i32, align 4
  store ptr %0, ptr %6, align 8, !tbaa !27
  store ptr %1, ptr %7, align 8, !tbaa !74
  store i32 %2, ptr %8, align 4, !tbaa !10
  store i32 %3, ptr %9, align 4, !tbaa !10
  %10 = load ptr, ptr %7, align 8, !tbaa !74
  %11 = icmp eq ptr %10, null
  br i1 %11, label %12, label %13

12:                                               ; preds = %4
  store i32 -1, ptr %5, align 4
  br label %40

13:                                               ; preds = %4
  %14 = load ptr, ptr %7, align 8, !tbaa !74
  %15 = getelementptr inbounds nuw %struct.mbedtls_ssl_ciphersuite_t, ptr %14, i32 0, i32 6
  %16 = load i16, ptr %15, align 4, !tbaa !177
  %17 = zext i16 %16 to i32
  %18 = load i32, ptr %9, align 4, !tbaa !10
  %19 = icmp ugt i32 %17, %18
  br i1 %19, label %27, label %20

20:                                               ; preds = %13
  %21 = load ptr, ptr %7, align 8, !tbaa !74
  %22 = getelementptr inbounds nuw %struct.mbedtls_ssl_ciphersuite_t, ptr %21, i32 0, i32 7
  %23 = load i16, ptr %22, align 2, !tbaa !178
  %24 = zext i16 %23 to i32
  %25 = load i32, ptr %8, align 4, !tbaa !10
  %26 = icmp ult i32 %24, %25
  br i1 %26, label %27, label %28

27:                                               ; preds = %20, %13
  store i32 -1, ptr %5, align 4
  br label %40

28:                                               ; preds = %20
  %29 = load ptr, ptr %7, align 8, !tbaa !74
  %30 = call i32 @mbedtls_ssl_ciphersuite_uses_psk(ptr noundef %29)
  %31 = icmp ne i32 %30, 0
  br i1 %31, label %32, label %39

32:                                               ; preds = %28
  %33 = load ptr, ptr %6, align 8, !tbaa !27
  %34 = getelementptr inbounds nuw %struct.mbedtls_ssl_context, ptr %33, i32 0, i32 0
  %35 = load ptr, ptr %34, align 8, !tbaa !30
  %36 = call i32 @mbedtls_ssl_conf_has_static_psk(ptr noundef %35)
  %37 = icmp eq i32 %36, 0
  br i1 %37, label %38, label %39

38:                                               ; preds = %32
  store i32 -1, ptr %5, align 4
  br label %40

39:                                               ; preds = %32, %28
  store i32 0, ptr %5, align 4
  br label %40

40:                                               ; preds = %39, %38, %27, %12
  %41 = load i32, ptr %5, align 4
  ret i32 %41
}