; Function Attrs: nounwind uwtable
define hidden range(i32 -1, 1) i32 @mbedtls_ssl_validate_ciphersuite(ptr noundef readonly captures(none) %0, ptr noundef %1, i32 noundef %2, i32 noundef %3) local_unnamed_addr #1 {
  %5 = icmp eq ptr %1, null
  br i1 %5, label %mbedtls_ssl_conf_has_static_psk.exit, label %6

6:                                                ; preds = %4
  %7 = getelementptr inbounds nuw i8, ptr %1, i64 20
  %8 = load i16, ptr %7, align 4, !tbaa !155
  %9 = zext i16 %8 to i32
  %10 = icmp ult i32 %3, %9
  br i1 %10, label %mbedtls_ssl_conf_has_static_psk.exit, label %11

11:                                               ; preds = %6
  %12 = getelementptr inbounds nuw i8, ptr %1, i64 22
  %13 = load i16, ptr %12, align 2, !tbaa !156
  %14 = zext i16 %13 to i32
  %15 = icmp ugt i32 %2, %14
  br i1 %15, label %mbedtls_ssl_conf_has_static_psk.exit, label %16

16:                                               ; preds = %11
  %17 = tail call i32 @mbedtls_ssl_ciphersuite_uses_psk(ptr noundef nonnull %1) #26
  %.not = icmp eq i32 %17, 0
  br i1 %.not, label %mbedtls_ssl_conf_has_static_psk.exit, label %18

18:                                               ; preds = %16
  %19 = load ptr, ptr %0, align 8, !tbaa !23
  %20 = getelementptr inbounds nuw i8, ptr %19, i64 312
  %21 = load ptr, ptr %20, align 8, !tbaa !157
  %22 = icmp eq ptr %21, null
  br i1 %22, label %mbedtls_ssl_conf_has_static_psk.exit.thread, label %23

23:                                               ; preds = %18
  %24 = getelementptr inbounds nuw i8, ptr %19, i64 320
  %25 = load i64, ptr %24, align 8, !tbaa !158
  %26 = icmp eq i64 %25, 0
  br i1 %26, label %mbedtls_ssl_conf_has_static_psk.exit.thread, label %27

27:                                               ; preds = %23
  %28 = getelementptr inbounds nuw i8, ptr %19, i64 296
  %29 = load ptr, ptr %28, align 8, !tbaa !159
  %.not.i = icmp eq ptr %29, null
  br i1 %.not.i, label %mbedtls_ssl_conf_has_static_psk.exit.thread, label %30

30:                                               ; preds = %27
  %31 = getelementptr inbounds nuw i8, ptr %19, i64 304
  %32 = load i64, ptr %31, align 8, !tbaa !160
  %.not4.i = icmp eq i64 %32, 0
  br i1 %.not4.i, label %mbedtls_ssl_conf_has_static_psk.exit.thread, label %mbedtls_ssl_conf_has_static_psk.exit

mbedtls_ssl_conf_has_static_psk.exit.thread:      ; preds = %23, %18, %30, %27
  br label %mbedtls_ssl_conf_has_static_psk.exit

mbedtls_ssl_conf_has_static_psk.exit:             ; preds = %16, %30, %mbedtls_ssl_conf_has_static_psk.exit.thread, %6, %11, %4
  %.0 = phi i32 [ -1, %4 ], [ -1, %11 ], [ -1, %6 ], [ -1, %mbedtls_ssl_conf_has_static_psk.exit.thread ], [ 0, %30 ], [ 0, %16 ]
  ret i32 %.0
}